target datalayout = "e-m:e-p270:32:32-p271:32:32-p272:64:64-i64:64-i128:128-f80:128-n8:16:32:64-S128"
target triple = "x86_64-pc-linux-gnu"

%struct.ossl_param_st = type { ptr, i32, ptr, i64, i64 }
%struct.evp_pkey_ctx_st = type { i32, ptr, ptr, ptr, ptr, %union.anon, %struct.anon.4, ptr, ptr, ptr, i32, i32, ptr, ptr, ptr, ptr, ptr, i8, ptr }
%union.anon = type { %struct.anon.0 }
%struct.anon.0 = type { ptr, ptr }
%struct.anon.4 = type { ptr, ptr, i64, i8 }
%struct.evp_pkey_method_st = type { i32, i32, ptr, ptr, ptr, ptr, ptr, ptr, ptr, ptr, ptr, ptr, ptr, ptr, ptr, ptr, ptr, ptr, ptr, ptr, ptr, ptr, ptr, ptr, ptr, ptr, ptr, ptr, ptr, ptr, ptr, ptr, ptr }

@.str = private unnamed_addr constant [7 x i8] c"gindex\00", align 1
@.str.5 = private unnamed_addr constant [32 x i8] c"../openssl/crypto/evp/dh_ctrl.c\00", align 1
@__func__.dh_paramgen_check = private unnamed_addr constant [18 x i8] c"dh_paramgen_check\00", align 1

; Function Attrs: nounwind uwtable
define internal i32 @dh_paramgen_check(ptr noundef %0) #0 {
  %2 = alloca i32, align 4
  %3 = alloca ptr, align 8
  store ptr %0, ptr %3, align 8, !tbaa !3
  %4 = load ptr, ptr %3, align 8, !tbaa !3
  %5 = icmp eq ptr %4, null
  br i1 %5, label %12, label %6

6:                                                ; preds = %1
  %7 = load ptr, ptr %3, align 8, !tbaa !3
  %8 = getelementptr inbounds nuw %struct.evp_pkey_ctx_st, ptr %7, i32 0, i32 0
  %9 = load i32, ptr %8, align 8, !tbaa !18
  %10 = and i32 %9, 6
  %11 = icmp ne i32 %10, 0
  br i1 %11, label %13, label %12

12:                                               ; preds = %6, %1
  call void @ERR_new()
  call void @ERR_set_debug(ptr noundef @.str.5, i32 noundef 22, ptr noundef @__func__.dh_paramgen_check)
  call void (i32, i32, ptr, ...) @ERR_set_error(i32 noundef 6, i32 noundef 147, ptr noundef null)
  store i32 -2, ptr %2, align 4
  br label %34

13:                                               ; preds = %6
  %14 = load ptr, ptr %3, align 8, !tbaa !3
  %15 = getelementptr inbounds nuw %struct.evp_pkey_ctx_st, ptr %14, i32 0, i32 4
  %16 = load ptr, ptr %15, align 8, !tbaa !28
  %17 = icmp eq ptr %16, null
  br i1 %17, label %18, label %33

18:                                               ; preds = %13
  %19 = load ptr, ptr %3, align 8, !tbaa !3
  %20 = getelementptr inbounds nuw %struct.evp_pkey_ctx_st, ptr %19, i32 0, i32 12
  %21 = load ptr, ptr %20, align 8, !tbaa !29
  %22 = getelementptr inbounds nuw %struct.evp_pkey_method_st, ptr %21, i32 0, i32 0
  %23 = load i32, ptr %22, align 8, !tbaa !30
  %24 = icmp ne i32 %23, 28
  br i1 %24, label %25, label %33

25:                                               ; preds = %18
  %26 = load ptr, ptr %3, align 8, !tbaa !3
  %27 = getelementptr inbounds nuw %struct.evp_pkey_ctx_st, ptr %26, i32 0, i32 12
  %28 = load ptr, ptr %27, align 8, !tbaa !29
  %29 = getelementptr inbounds nuw %struct.evp_pkey_method_st, ptr %28, i32 0, i32 0
  %30 = load i32, ptr %29, align 8, !tbaa !30
  %31 = icmp ne i32 %30, 920
  br i1 %31, label %32, label %33

32:                                               ; preds = %25
  store i32 -1, ptr %2, align 4
  br label %34

33:                                               ; preds = %25, %18, %13
  store i32 1, ptr %2, align 4
  br label %34

34:                                               ; preds = %33, %32, %12
  %35 = load i32, ptr %2, align 4
  ret i32 %35
}

; Function Attrs: nounwind uwtable
define i32 @EVP_PKEY_CTX_set_dh_paramgen_gindex(ptr noundef %0, i32 noundef %1) #0 {
  %3 = alloca i32, align 4
  %4 = alloca ptr, align 8
  %5 = alloca i32, align 4
  %6 = alloca i32, align 4
  %7 = alloca [2 x %struct.ossl_param_st], align 16
  %8 = alloca ptr, align 8
  %9 = alloca i32, align 4
  %10 = alloca %struct.ossl_param_st, align 8
  %11 = alloca %struct.ossl_param_st, align 8
  store ptr %0, ptr %4, align 8, !tbaa !3
  store i32 %1, ptr %5, align 4, !tbaa !8
  call void @llvm.lifetime.start.p0(i64 4, ptr %6) #4
  call void @llvm.lifetime.start.p0(i64 80, ptr %7) #4
  call void @llvm.lifetime.start.p0(i64 8, ptr %8) #4
  %12 = getelementptr inbounds [2 x %struct.ossl_param_st], ptr %7, i64 0, i64 0
  store ptr %12, ptr %8, align 8, !tbaa !10
  %13 = load ptr, ptr %4, align 8, !tbaa !3
  %14 = call i32 @dh_paramgen_check(ptr noundef %13)
  store i32 %14, ptr %6, align 4, !tbaa !8
  %15 = icmp sle i32 %14, 0
  br i1 %15, label %16, label %18

16:                                               ; preds = %2
  %17 = load i32, ptr %6, align 4, !tbaa !8
  store i32 %17, ptr %3, align 4
  store i32 1, ptr %9, align 4
  br label %25

18:                                               ; preds = %2
  %19 = load ptr, ptr %8, align 8, !tbaa !10
  %20 = getelementptr inbounds nuw %struct.ossl_param_st, ptr %19, i32 1
  store ptr %20, ptr %8, align 8, !tbaa !10
  call void @llvm.lifetime.start.p0(i64 40, ptr %10) #4
  call void @OSSL_PARAM_construct_int(ptr dead_on_unwind writable sret(%struct.ossl_param_st) align 8 %10, ptr noundef @.str, ptr noundef %5)
  call void @llvm.memcpy.p0.p0.i64(ptr align 8 %19, ptr align 8 %10, i64 40, i1 false), !tbaa.struct !12
  call void @llvm.lifetime.end.p0(i64 40, ptr %10) #4
  %21 = load ptr, ptr %8, align 8, !tbaa !10
  call void @llvm.lifetime.start.p0(i64 40, ptr %11) #4
  call void @OSSL_PARAM_construct_end(ptr dead_on_unwind writable sret(%struct.ossl_param_st) align 8 %11)
  call void @llvm.memcpy.p0.p0.i64(ptr align 8 %21, ptr align 8 %11, i64 40, i1 false), !tbaa.struct !12
  call void @llvm.lifetime.end.p0(i64 40, ptr %11) #4
  %22 = load ptr, ptr %4, align 8, !tbaa !3
  %23 = getelementptr inbounds [2 x %struct.ossl_param_st], ptr %7, i64 0, i64 0
  %24 = call i32 @evp_pkey_ctx_set_params_strict(ptr noundef %22, ptr noundef %23)
  store i32 %24, ptr %3, align 4
  store i32 1, ptr %9, align 4
  br label %25

25:                                               ; preds = %18, %16
  call void @llvm.lifetime.end.p0(i64 8, ptr %8) #4
  call void @llvm.lifetime.end.p0(i64 80, ptr %7) #4
  call void @llvm.lifetime.end.p0(i64 4, ptr %6) #4
  %26 = load i32, ptr %3, align 4
  ret i32 %26
}