; Function Attrs: nounwind uwtable
define i32 @EVP_PKEY_CTX_set_dh_paramgen_gindex(ptr noundef %0, i32 noundef %1) local_unnamed_addr #0 {
  %3 = alloca i32, align 4
  %4 = alloca [2 x %struct.ossl_param_st], align 16
  %5 = alloca %struct.ossl_param_st, align 8
  store i32 %1, ptr %3, align 4, !tbaa !3
  call void @llvm.lifetime.start.p0(i64 80, ptr nonnull %4) #4
  %6 = icmp eq ptr %0, null
  br i1 %6, label %10, label %7

7:                                                ; preds = %2
  %8 = load i32, ptr %0, align 8, !tbaa !7
  %9 = and i32 %8, 6
  %.not.i = icmp eq i32 %9, 0
  br i1 %.not.i, label %10, label %11

10:                                               ; preds = %7, %2
  tail call void @ERR_new() #4
  tail call void @ERR_set_debug(ptr noundef nonnull @.str.5, i32 noundef 22, ptr noundef nonnull @__func__.dh_paramgen_check) #4
  tail call void (i32, i32, ptr, ...) @ERR_set_error(i32 noundef 6, i32 noundef 147, ptr noundef null) #4
  br label %dh_paramgen_check.exit.thread

11:                                               ; preds = %7
  %12 = getelementptr inbounds nuw i8, ptr %0, i64 32
  %13 = load ptr, ptr %12, align 8, !tbaa !20
  %14 = icmp eq ptr %13, null
  br i1 %14, label %15, label %dh_paramgen_check.exit

15:                                               ; preds = %11
  %16 = getelementptr inbounds nuw i8, ptr %0, i64 120
  %17 = load ptr, ptr %16, align 8, !tbaa !21
  %18 = load i32, ptr %17, align 8, !tbaa !22
  switch i32 %18, label %dh_paramgen_check.exit.thread [
    i32 920, label %dh_paramgen_check.exit
    i32 28, label %dh_paramgen_check.exit
  ]

dh_paramgen_check.exit:                           ; preds = %15, %15, %11
  %19 = getelementptr inbounds nuw i8, ptr %4, i64 40
  call void @OSSL_PARAM_construct_int(ptr dead_on_unwind nonnull writable sret(%struct.ossl_param_st) align 8 %4, ptr noundef nonnull @.str, ptr noundef nonnull %3) #4
  call void @llvm.lifetime.start.p0(i64 40, ptr nonnull %5) #4
  call void @OSSL_PARAM_construct_end(ptr dead_on_unwind nonnull writable sret(%struct.ossl_param_st) align 8 %5) #4
  call void @llvm.memcpy.p0.p0.i64(ptr noundef nonnull align 8 dereferenceable(40) %19, ptr noundef nonnull align 8 dereferenceable(40) %5, i64 40, i1 false), !tbaa.struct !24
  call void @llvm.lifetime.end.p0(i64 40, ptr nonnull %5) #4
  %20 = call i32 @evp_pkey_ctx_set_params_strict(ptr noundef nonnull %0, ptr noundef nonnull %4) #4
  br label %dh_paramgen_check.exit.thread

dh_paramgen_check.exit.thread:                    ; preds = %15, %10, %dh_paramgen_check.exit
  %.0 = phi i32 [ %20, %dh_paramgen_check.exit ], [ -1, %15 ], [ -2, %10 ]
  call void @llvm.lifetime.end.p0(i64 80, ptr nonnull %4) #4
  ret i32 %.0
}